; Function Attrs: mustprogress uwtable
define noundef zeroext i1 @_ZNK18OpenImageIO_v2_6_014ParamValueList12getattributeENS_17basic_string_viewIcSt11char_traitsIcEEENS_8TypeDescEPvb(ptr nocapture noundef nonnull readonly align 8 dereferenceable(24) %this, ptr nocapture noundef readonly %name, ptr nocapture noundef readonly %type, ptr noundef %value, i1 noundef zeroext %casesensitive) local_unnamed_addr #10 align 2 {
entry:
  %agg.tmp = alloca %"class.OpenImageIO_v2_6_0::basic_string_view", align 8
  %agg.tmp2 = alloca %"struct.OpenImageIO_v2_6_0::TypeDesc", align 4
  %agg.tmp6 = alloca %"struct.OpenImageIO_v2_6_0::TypeDesc", align 4
  %agg.tmp10 = alloca %"struct.OpenImageIO_v2_6_0::TypeDesc", align 4
  %0 = load ptr, ptr %name, align 8
  store ptr %0, ptr %agg.tmp, align 8
  %m_len.i = getelementptr inbounds i8, ptr %agg.tmp, i64 8
  %m_len.i.i = getelementptr inbounds i8, ptr %name, i64 8
  %1 = load i64, ptr %m_len.i.i, align 8
  store i64 %1, ptr %m_len.i, align 8
  store <4 x i8> <i8 0, i8 1, i8 0, i8 0>, ptr %agg.tmp2, align 4
  %arraylen.i = getelementptr inbounds i8, ptr %agg.tmp2, i64 4
  store i32 0, ptr %arraylen.i, align 4
  %call = call ptr @_ZNK18OpenImageIO_v2_6_014ParamValueList4findENS_17basic_string_viewIcSt11char_traitsIcEEENS_8TypeDescEb(ptr noundef nonnull align 8 dereferenceable(24) %this, ptr noundef nonnull %agg.tmp, ptr noundef nonnull %agg.tmp2, i1 noundef zeroext %casesensitive)
  %_M_finish.i = getelementptr inbounds i8, ptr %this, i64 8
  %2 = load ptr, ptr %_M_finish.i, align 8
  %cmp.i.not = icmp eq ptr %call, %2
  br i1 %cmp.i.not, label %return, label %if.then

if.then:                                          ; preds = %entry
  tail call void @llvm.experimental.noalias.scope.decl(metadata !247)
  %m_type.i = getelementptr inbounds i8, ptr %call, i64 8
  %3 = load i8, ptr %m_type.i, align 4, !noalias !247
  store i8 %3, ptr %agg.tmp6, align 4, !alias.scope !247
  %aggregate.i.i = getelementptr inbounds i8, ptr %agg.tmp6, i64 1
  %aggregate3.i.i = getelementptr inbounds i8, ptr %call, i64 9
  %4 = load i8, ptr %aggregate3.i.i, align 1, !noalias !247
  store i8 %4, ptr %aggregate.i.i, align 1, !alias.scope !247
  %vecsemantics.i.i = getelementptr inbounds i8, ptr %agg.tmp6, i64 2
  %vecsemantics4.i.i = getelementptr inbounds i8, ptr %call, i64 10
  %5 = load i8, ptr %vecsemantics4.i.i, align 2, !noalias !247
  store i8 %5, ptr %vecsemantics.i.i, align 2, !alias.scope !247
  %reserved.i.i = getelementptr inbounds i8, ptr %agg.tmp6, i64 3
  store i8 0, ptr %reserved.i.i, align 1, !alias.scope !247
  %arraylen.i.i = getelementptr inbounds i8, ptr %agg.tmp6, i64 4
  %arraylen5.i.i = getelementptr inbounds i8, ptr %call, i64 12
  %6 = load i32, ptr %arraylen5.i.i, align 4, !noalias !247
  store i32 %6, ptr %arraylen.i.i, align 4, !alias.scope !247
  %m_nonlocal.i = getelementptr inbounds i8, ptr %call, i64 38
  %7 = load i8, ptr %m_nonlocal.i, align 2
  %8 = and i8 %7, 1
  %tobool.not.i = icmp eq i8 %8, 0
  %m_data.i = getelementptr inbounds i8, ptr %call, i64 16
  %9 = load ptr, ptr %m_data.i, align 8
  %cond.i = select i1 %tobool.not.i, ptr %m_data.i, ptr %9
  %10 = load i8, ptr %type, align 4
  store i8 %10, ptr %agg.tmp10, align 4
  %aggregate.i1 = getelementptr inbounds i8, ptr %agg.tmp10, i64 1
  %aggregate3.i = getelementptr inbounds i8, ptr %type, i64 1
  %11 = load i8, ptr %aggregate3.i, align 1
  store i8 %11, ptr %aggregate.i1, align 1
  %vecsemantics.i2 = getelementptr inbounds i8, ptr %agg.tmp10, i64 2
  %vecsemantics4.i = getelementptr inbounds i8, ptr %type, i64 2
  %12 = load i8, ptr %vecsemantics4.i, align 2
  store i8 %12, ptr %vecsemantics.i2, align 2
  %reserved.i3 = getelementptr inbounds i8, ptr %agg.tmp10, i64 3
  store i8 0, ptr %reserved.i3, align 1
  %arraylen.i4 = getelementptr inbounds i8, ptr %agg.tmp10, i64 4
  %arraylen5.i = getelementptr inbounds i8, ptr %type, i64 4
  %13 = load i32, ptr %arraylen5.i, align 4
  store i32 %13, ptr %arraylen.i4, align 4
  %call11 = call noundef zeroext i1 @_ZN18OpenImageIO_v2_6_012convert_typeENS_8TypeDescEPKvS0_Pvi(ptr noundef nonnull %agg.tmp6, ptr noundef %cond.i, ptr noundef nonnull %agg.tmp10, ptr noundef %value, i32 noundef 1)
  br label %return

return:                                           ; preds = %entry, %if.then
  %retval.0 = phi i1 [ %call11, %if.then ], [ false, %entry ]
  ret i1 %retval.0
}